; Function Attrs: mustprogress nounwind uwtable
define dso_local noundef i32 @_ZN6v8impl9Reference5UnrefEv(ptr noundef nonnull align 8 dereferenceable(81) %this) local_unnamed_addr #3 align 2 {
entry:
  %persistent_ = getelementptr inbounds i8, ptr %this, i64 72
  %0 = load ptr, ptr %persistent_, align 8
  %cmp.i = icmp eq ptr %0, null
  br i1 %cmp.i, label %return, label %if.end

if.end:                                           ; preds = %entry
  %refcount_.i = getelementptr inbounds i8, ptr %this, i64 64
  %1 = load i32, ptr %refcount_.i, align 8
  %cmp.i3 = icmp eq i32 %1, 0
  br i1 %cmp.i3, label %return, label %_ZN6v8impl7RefBase5UnrefEv.exit

_ZN6v8impl7RefBase5UnrefEv.exit:                  ; preds = %if.end
  %dec.i = add i32 %1, -1
  store i32 %dec.i, ptr %refcount_.i, align 8
  %cmp = icmp eq i32 %1, 1
  br i1 %cmp, label %if.then5, label %return

if.then5:                                         ; preds = %_ZN6v8impl7RefBase5UnrefEv.exit
  %can_be_weak_.i = getelementptr inbounds i8, ptr %this, i64 80
  %2 = load i8, ptr %can_be_weak_.i, align 8
  %3 = and i8 %2, 1
  %tobool.not.i = icmp eq i8 %3, 0
  br i1 %tobool.not.i, label %if.end.i.i, label %if.then.i

if.then.i:                                        ; preds = %if.then5
  tail call void @_ZN2v812api_internal8MakeWeakEPmPvPFvRKNS_16WeakCallbackInfoIvEEENS_16WeakCallbackTypeE(ptr noundef nonnull %0, ptr noundef nonnull %this, ptr noundef nonnull @_ZN6v8impl9Reference12WeakCallbackERKN2v816WeakCallbackInfoIS0_EE, i32 noundef 0) #24
  br label %return

if.end.i.i:                                       ; preds = %if.then5
  tail call void @_ZN2v812api_internal13DisposeGlobalEPm(ptr noundef nonnull %0) #24
  store ptr null, ptr %persistent_, align 8
  br label %return

return:                                           ; preds = %if.end, %if.end.i.i, %if.then.i, %_ZN6v8impl7RefBase5UnrefEv.exit, %entry
  %retval.0 = phi i32 [ 0, %entry ], [ %dec.i, %_ZN6v8impl7RefBase5UnrefEv.exit ], [ 0, %if.then.i ], [ 0, %if.end.i.i ], [ 0, %if.end ]
  ret i32 %retval.0
}